target datalayout = "e-m:e-p270:32:32-p271:32:32-p272:64:64-i64:64-i128:128-f80:128-n8:16:32:64-S128"
target triple = "x86_64-pc-linux-gnu"

%"class.cv::Mat" = type { i32, i32, i32, i32, ptr, ptr, ptr, ptr, ptr, ptr, %"struct.cv::MatSize", %"struct.cv::MatStep" }
%"struct.cv::MatSize" = type { ptr }
%"struct.cv::MatStep" = type { ptr, [2 x i64] }
%"class.cv::Range" = type { i32, i32 }
%"class.cv::ParallelLoopBody" = type { ptr }
%"class.cv::resizeAreaFast_Invoker" = type { %"class.cv::ParallelLoopBody", %"class.cv::Mat", %"class.cv::Mat", i32, i32, ptr, ptr }

@_ZTVN2cv16ParallelLoopBodyE = available_externally unnamed_addr constant { [5 x ptr] } { [5 x ptr] [ptr null, ptr @_ZTIN2cv16ParallelLoopBodyE, ptr @_ZN2cv16ParallelLoopBodyD1Ev, ptr @_ZN2cv16ParallelLoopBodyD0Ev, ptr @__cxa_pure_virtual] }, align 8

; Function Attrs: inlinehint mustprogress nounwind uwtable
define linkonce_odr hidden void @_ZN2cv16ParallelLoopBodyC2Ev(ptr noundef nonnull align 8 dereferenceable(8) %0) unnamed_addr #5 comdat align 2 {
  %2 = alloca ptr, align 8
  store ptr %0, ptr %2, align 8, !tbaa !143
  %3 = load ptr, ptr %2, align 8
  store ptr getelementptr inbounds inrange(-16, 24) ({ [5 x ptr] }, ptr @_ZTVN2cv16ParallelLoopBodyE, i32 0, i32 0, i32 2), ptr %3, align 8, !tbaa !137
  ret void
}

; Function Attrs: mustprogress uwtable
define linkonce_odr hidden void @_ZN2cv22resizeAreaFast_InvokerIhiNS_17ResizeAreaFastVecIhNS_19ResizeAreaFastNoVecIhhEEEEEC2ERKNS_3MatERS6_iiPKiSB_(ptr noundef nonnull align 8 dereferenceable(224) %0, ptr noundef nonnull align 8 dereferenceable(96) %1, ptr noundef nonnull align 8 dereferenceable(96) %2, i32 noundef %3, i32 noundef %4, ptr noundef %5, ptr noundef %6) unnamed_addr #0 comdat align 2 personality ptr @__gxx_personality_v0 {
  %8 = alloca ptr, align 8
  %9 = alloca ptr, align 8
  %10 = alloca ptr, align 8
  %11 = alloca i32, align 4
  %12 = alloca i32, align 4
  %13 = alloca ptr, align 8
  %14 = alloca ptr, align 8
  %15 = alloca ptr, align 8
  %16 = alloca i32, align 4
  store ptr %0, ptr %8, align 8, !tbaa !681
  store ptr %1, ptr %9, align 8, !tbaa !58
  store ptr %2, ptr %10, align 8, !tbaa !58
  store i32 %3, ptr %11, align 4, !tbaa !3
  store i32 %4, ptr %12, align 4, !tbaa !3
  store ptr %5, ptr %13, align 8, !tbaa !22
  store ptr %6, ptr %14, align 8, !tbaa !22
  %17 = load ptr, ptr %8, align 8
  %18 = getelementptr inbounds i8, ptr %17, i64 0
  call void @llvm.memset.p0.i64(ptr align 8 %18, i8 0, i64 8, i1 false)
  call void @_ZN2cv16ParallelLoopBodyC2Ev(ptr noundef nonnull align 8 dereferenceable(8) %17) #19
  store ptr getelementptr inbounds inrange(-16, 24) ({ [5 x ptr] }, ptr @_ZTVN2cv22resizeAreaFast_InvokerIhiNS_17ResizeAreaFastVecIhNS_19ResizeAreaFastNoVecIhhEEEEEE, i32 0, i32 0, i32 2), ptr %17, align 8, !tbaa !137
  %19 = getelementptr inbounds nuw %"class.cv::resizeAreaFast_Invoker", ptr %17, i32 0, i32 1
  %20 = load ptr, ptr %9, align 8, !tbaa !58
  invoke void @_ZN2cv3MatC1ERKS0_(ptr noundef nonnull align 8 dereferenceable(96) %19, ptr noundef nonnull align 8 dereferenceable(96) %20)
          to label %21 unwind label %33

21:                                               ; preds = %7
  %22 = getelementptr inbounds nuw %"class.cv::resizeAreaFast_Invoker", ptr %17, i32 0, i32 2
  %23 = load ptr, ptr %10, align 8, !tbaa !58
  invoke void @_ZN2cv3MatC1ERKS0_(ptr noundef nonnull align 8 dereferenceable(96) %22, ptr noundef nonnull align 8 dereferenceable(96) %23)
          to label %24 unwind label %37

24:                                               ; preds = %21
  %25 = getelementptr inbounds nuw %"class.cv::resizeAreaFast_Invoker", ptr %17, i32 0, i32 3
  %26 = load i32, ptr %11, align 4, !tbaa !3
  store i32 %26, ptr %25, align 8, !tbaa !683
  %27 = getelementptr inbounds nuw %"class.cv::resizeAreaFast_Invoker", ptr %17, i32 0, i32 4
  %28 = load i32, ptr %12, align 4, !tbaa !3
  store i32 %28, ptr %27, align 4, !tbaa !685
  %29 = getelementptr inbounds nuw %"class.cv::resizeAreaFast_Invoker", ptr %17, i32 0, i32 5
  %30 = load ptr, ptr %13, align 8, !tbaa !22
  store ptr %30, ptr %29, align 8, !tbaa !686
  %31 = getelementptr inbounds nuw %"class.cv::resizeAreaFast_Invoker", ptr %17, i32 0, i32 6
  %32 = load ptr, ptr %14, align 8, !tbaa !22
  store ptr %32, ptr %31, align 8, !tbaa !687
  ret void

33:                                               ; preds = %7
  %34 = landingpad { ptr, i32 }
          cleanup
  %35 = extractvalue { ptr, i32 } %34, 0
  store ptr %35, ptr %15, align 8
  %36 = extractvalue { ptr, i32 } %34, 1
  store i32 %36, ptr %16, align 4
  br label %41

37:                                               ; preds = %21
  %38 = landingpad { ptr, i32 }
          cleanup
  %39 = extractvalue { ptr, i32 } %38, 0
  store ptr %39, ptr %15, align 8
  %40 = extractvalue { ptr, i32 } %38, 1
  store i32 %40, ptr %16, align 4
  call void @_ZN2cv3MatD1Ev(ptr noundef nonnull align 8 dereferenceable(96) %19) #19
  br label %41

41:                                               ; preds = %37, %33
  call void @_ZN2cv16ParallelLoopBodyD2Ev(ptr noundef nonnull align 8 dereferenceable(8) %17) #19
  br label %42

42:                                               ; preds = %41
  %43 = load ptr, ptr %15, align 8
  %44 = load i32, ptr %16, align 4
  %45 = insertvalue { ptr, i32 } poison, ptr %43, 0
  %46 = insertvalue { ptr, i32 } %45, i32 %44, 1
  resume { ptr, i32 } %46
}

; Function Attrs: inlinehint mustprogress nounwind uwtable
define linkonce_odr hidden void @_ZN2cv5RangeC2Eii(ptr noundef nonnull align 4 dereferenceable(8) %0, i32 noundef %1, i32 noundef %2) unnamed_addr #5 comdat align 2 {
  %4 = alloca ptr, align 8
  %5 = alloca i32, align 4
  %6 = alloca i32, align 4
  store ptr %0, ptr %4, align 8, !tbaa !130
  store i32 %1, ptr %5, align 4, !tbaa !3
  store i32 %2, ptr %6, align 4, !tbaa !3
  %7 = load ptr, ptr %4, align 8
  %8 = getelementptr inbounds nuw %"class.cv::Range", ptr %7, i32 0, i32 0
  %9 = load i32, ptr %5, align 4, !tbaa !3
  store i32 %9, ptr %8, align 4, !tbaa !132
  %10 = getelementptr inbounds nuw %"class.cv::Range", ptr %7, i32 0, i32 1
  %11 = load i32, ptr %6, align 4, !tbaa !3
  store i32 %11, ptr %10, align 4, !tbaa !134
  ret void
}

; Function Attrs: mustprogress uwtable
define internal void @_ZN2cvL15resizeAreaFast_IhiNS_17ResizeAreaFastVecIhNS_19ResizeAreaFastNoVecIhhEEEEEEvRKNS_3MatERS5_PKiSA_ii(ptr noundef nonnull align 8 dereferenceable(96) %0, ptr noundef nonnull align 8 dereferenceable(96) %1, ptr noundef %2, ptr noundef %3, i32 noundef %4, i32 noundef %5) #0 personality ptr @__gxx_personality_v0 {
  %7 = alloca ptr, align 8
  %8 = alloca ptr, align 8
  %9 = alloca ptr, align 8
  %10 = alloca ptr, align 8
  %11 = alloca i32, align 4
  %12 = alloca i32, align 4
  %13 = alloca %"class.cv::Range", align 4
  %14 = alloca %"class.cv::resizeAreaFast_Invoker", align 8
  %15 = alloca ptr, align 8
  %16 = alloca i32, align 4
  store ptr %0, ptr %7, align 8, !tbaa !58
  store ptr %1, ptr %8, align 8, !tbaa !58
  store ptr %2, ptr %9, align 8, !tbaa !22
  store ptr %3, ptr %10, align 8, !tbaa !22
  store i32 %4, ptr %11, align 4, !tbaa !3
  store i32 %5, ptr %12, align 4, !tbaa !3
  call void @llvm.lifetime.start.p0(i64 8, ptr %13) #19
  %17 = load ptr, ptr %8, align 8, !tbaa !58
  %18 = getelementptr inbounds nuw %"class.cv::Mat", ptr %17, i32 0, i32 2
  %19 = load i32, ptr %18, align 8, !tbaa !60
  call void @_ZN2cv5RangeC2Eii(ptr noundef nonnull align 4 dereferenceable(8) %13, i32 noundef 0, i32 noundef %19)
  call void @llvm.lifetime.start.p0(i64 224, ptr %14) #19
  %20 = load ptr, ptr %7, align 8, !tbaa !58
  %21 = load ptr, ptr %8, align 8, !tbaa !58
  %22 = load i32, ptr %11, align 4, !tbaa !3
  %23 = load i32, ptr %12, align 4, !tbaa !3
  %24 = load ptr, ptr %9, align 8, !tbaa !22
  %25 = load ptr, ptr %10, align 8, !tbaa !22
  call void @_ZN2cv22resizeAreaFast_InvokerIhiNS_17ResizeAreaFastVecIhNS_19ResizeAreaFastNoVecIhhEEEEEC2ERKNS_3MatERS6_iiPKiSB_(ptr noundef nonnull align 8 dereferenceable(224) %14, ptr noundef nonnull align 8 dereferenceable(96) %20, ptr noundef nonnull align 8 dereferenceable(96) %21, i32 noundef %22, i32 noundef %23, ptr noundef %24, ptr noundef %25)
  %26 = load ptr, ptr %8, align 8, !tbaa !58
  %27 = invoke noundef i64 @_ZNK2cv3Mat5totalEv(ptr noundef nonnull align 8 dereferenceable(96) %26)
          to label %28 unwind label %32

28:                                               ; preds = %6
  %29 = uitofp i64 %27 to double
  %30 = fdiv double %29, 6.553600e+04
  invoke void @_ZN2cv13parallel_for_ERKNS_5RangeERKNS_16ParallelLoopBodyEd(ptr noundef nonnull align 4 dereferenceable(8) %13, ptr noundef nonnull align 8 dereferenceable(8) %14, double noundef %30)
          to label %31 unwind label %32

31:                                               ; preds = %28
  call void @_ZN2cv22resizeAreaFast_InvokerIhiNS_17ResizeAreaFastVecIhNS_19ResizeAreaFastNoVecIhhEEEEED2Ev(ptr noundef nonnull align 8 dereferenceable(224) %14) #19
  call void @llvm.lifetime.end.p0(i64 224, ptr %14) #19
  call void @llvm.lifetime.end.p0(i64 8, ptr %13) #19
  ret void

32:                                               ; preds = %28, %6
  %33 = landingpad { ptr, i32 }
          cleanup
  %34 = extractvalue { ptr, i32 } %33, 0
  store ptr %34, ptr %15, align 8
  %35 = extractvalue { ptr, i32 } %33, 1
  store i32 %35, ptr %16, align 4
  call void @_ZN2cv22resizeAreaFast_InvokerIhiNS_17ResizeAreaFastVecIhNS_19ResizeAreaFastNoVecIhhEEEEED2Ev(ptr noundef nonnull align 8 dereferenceable(224) %14) #19
  call void @llvm.lifetime.end.p0(i64 224, ptr %14) #19
  call void @llvm.lifetime.end.p0(i64 8, ptr %13) #19
  br label %36

36:                                               ; preds = %32
  %37 = load ptr, ptr %15, align 8
  %38 = load i32, ptr %16, align 4
  %39 = insertvalue { ptr, i32 } poison, ptr %37, 0
  %40 = insertvalue { ptr, i32 } %39, i32 %38, 1
  resume { ptr, i32 } %40
}